target datalayout = "e-m:e-p270:32:32-p271:32:32-p272:64:64-i64:64-i128:128-f80:128-n8:16:32:64-S128"
target triple = "x86_64-pc-linux-gnu"

%struct.anon = type { i8 }
%"struct.std::__1::basic_string<char>::__short" = type { %struct.anon, [23 x i8] }
%"class.std::__1::basic_string" = type { %"union.std::__1::basic_string<char>::__rep" }
%"union.std::__1::basic_string<char>::__rep" = type { %"struct.std::__1::basic_string<char>::__long" }
%"struct.std::__1::basic_string<char>::__long" = type { %struct.anon.0, i64, ptr }
%struct.anon.0 = type { i64 }
%"class.std::__1::locale::facet" = type { %"class.std::__1::__shared_count" }
%"class.std::__1::__shared_count" = type { ptr, i64 }
%"class.std::__1::numpunct" = type { %"class.std::__1::locale::facet", i8, i8, %"class.std::__1::basic_string" }

@_ZTVNSt3__16locale5facetE = dso_local unnamed_addr constant { [5 x ptr] } { [5 x ptr] [ptr null, ptr @_ZTINSt3__16locale5facetE, ptr @_ZNSt3__16locale5facetD1Ev, ptr @_ZNSt3__16locale5facetD0Ev, ptr @_ZNSt3__16locale5facet16__on_zero_sharedEv] }, align 8
@_ZTVNSt3__114__shared_countE = available_externally unnamed_addr constant { [5 x ptr] } { [5 x ptr] [ptr null, ptr @_ZTINSt3__114__shared_countE, ptr @_ZNSt3__114__shared_countD1Ev, ptr @_ZNSt3__114__shared_countD0Ev, ptr @__cxa_pure_virtual] }, align 8

; Function Attrs: mustprogress nounwind uwtable
define linkonce_odr hidden noundef ptr @_ZNSt3__114pointer_traitsIPKcE10pointer_toB8ne210000ERS1_(ptr noundef nonnull align 1 dereferenceable(1) %0) #0 comdat align 2 {
  %2 = alloca ptr, align 8
  store ptr %0, ptr %2, align 8, !tbaa !9
  %3 = load ptr, ptr %2, align 8, !tbaa !9
  ret ptr %3
}

; Function Attrs: mustprogress nounwind uwtable
define linkonce_odr hidden noundef i64 @_ZNKSt3__112basic_stringIcNS_11char_traitsIcEENS_9allocatorIcEEE14__get_long_capB8ne210000Ev(ptr noundef nonnull align 8 dereferenceable(24) %0) #0 comdat align 2 {
  %2 = alloca ptr, align 8
  store ptr %0, ptr %2, align 8, !tbaa !14
  %3 = load ptr, ptr %2, align 8
  %4 = getelementptr inbounds nuw %"class.std::__1::basic_string", ptr %3, i32 0, i32 0
  %5 = getelementptr inbounds nuw %"struct.std::__1::basic_string<char>::__long", ptr %4, i32 0, i32 0
  %6 = load i64, ptr %5, align 8
  %7 = lshr i64 %6, 1
  %8 = mul i64 %7, 2
  ret i64 %8
}

; Function Attrs: mustprogress nounwind uwtable
define linkonce_odr hidden noundef ptr @_ZNKSt3__112basic_stringIcNS_11char_traitsIcEENS_9allocatorIcEEE19__get_short_pointerB8ne210000Ev(ptr noundef nonnull align 8 dereferenceable(24) %0) #0 comdat align 2 {
  %2 = alloca ptr, align 8
  store ptr %0, ptr %2, align 8, !tbaa !14
  %3 = load ptr, ptr %2, align 8
  %4 = getelementptr inbounds nuw %"class.std::__1::basic_string", ptr %3, i32 0, i32 0
  %5 = getelementptr inbounds nuw %"struct.std::__1::basic_string<char>::__short", ptr %4, i32 0, i32 1
  %6 = getelementptr inbounds [23 x i8], ptr %5, i64 0, i64 0
  %7 = call noundef ptr @_ZNSt3__114pointer_traitsIPKcE10pointer_toB8ne210000ERS1_(ptr noundef nonnull align 1 dereferenceable(1) %6) #13
  ret ptr %7
}

; Function Attrs: mustprogress nounwind uwtable
define linkonce_odr hidden noundef ptr @_ZNKSt3__112basic_stringIcNS_11char_traitsIcEENS_9allocatorIcEEE18__get_long_pointerB8ne210000Ev(ptr noundef nonnull align 8 dereferenceable(24) %0) #0 comdat align 2 {
  %2 = alloca ptr, align 8
  store ptr %0, ptr %2, align 8, !tbaa !14
  %3 = load ptr, ptr %2, align 8
  %4 = getelementptr inbounds nuw %"class.std::__1::basic_string", ptr %3, i32 0, i32 0
  %5 = getelementptr inbounds nuw %"struct.std::__1::basic_string<char>::__long", ptr %4, i32 0, i32 2
  %6 = load ptr, ptr %5, align 8, !tbaa !11
  ret ptr %6
}

; Function Attrs: mustprogress nounwind uwtable
define linkonce_odr hidden noundef zeroext i1 @_ZNKSt3__112basic_stringIcNS_11char_traitsIcEENS_9allocatorIcEEE9__is_longB8ne210000Ev(ptr noundef nonnull align 8 dereferenceable(24) %0) #0 comdat align 2 {
  %2 = alloca ptr, align 8
  store ptr %0, ptr %2, align 8, !tbaa !14
  %3 = load ptr, ptr %2, align 8
  %4 = getelementptr inbounds nuw %"class.std::__1::basic_string", ptr %3, i32 0, i32 0
  %5 = getelementptr inbounds nuw %"struct.std::__1::basic_string<char>::__short", ptr %4, i32 0, i32 0
  %6 = load i8, ptr %5, align 8
  %7 = and i8 %6, 1
  %8 = icmp ne i8 %7, 0
  ret i1 %8
}

; Function Attrs: noinline noreturn nounwind uwtable
define linkonce_odr hidden void @__clang_call_terminate(ptr noundef %0) #15 comdat {
  %2 = call ptr @__cxa_begin_catch(ptr %0) #13
  call void @_ZSt9terminatev() #33
  unreachable
}

; Function Attrs: mustprogress nounwind uwtable
define linkonce_odr hidden void @_ZNKSt3__112basic_stringIcNS_11char_traitsIcEENS_9allocatorIcEEE31__annotate_contiguous_containerB8ne210000EPKvS7_(ptr noundef nonnull align 8 dereferenceable(24) %0, ptr noundef %1, ptr noundef %2) #0 comdat align 2 {
  %4 = alloca ptr, align 8
  %5 = alloca ptr, align 8
  %6 = alloca ptr, align 8
  store ptr %0, ptr %4, align 8, !tbaa !14
  store ptr %1, ptr %5, align 8, !tbaa !55
  store ptr %2, ptr %6, align 8, !tbaa !55
  ret void
}

; Function Attrs: mustprogress nounwind uwtable
define linkonce_odr hidden noundef i64 @_ZNKSt3__112basic_stringIcNS_11char_traitsIcEENS_9allocatorIcEEE8capacityB8ne210000Ev(ptr noundef nonnull align 8 dereferenceable(24) %0) #0 comdat align 2 {
  %2 = alloca ptr, align 8
  store ptr %0, ptr %2, align 8, !tbaa !14
  %3 = load ptr, ptr %2, align 8
  %4 = call noundef zeroext i1 @_ZNKSt3__112basic_stringIcNS_11char_traitsIcEENS_9allocatorIcEEE9__is_longB8ne210000Ev(ptr noundef nonnull align 8 dereferenceable(24) %3) #13
  br i1 %4, label %5, label %7

5:                                                ; preds = %1
  %6 = call noundef i64 @_ZNKSt3__112basic_stringIcNS_11char_traitsIcEENS_9allocatorIcEEE14__get_long_capB8ne210000Ev(ptr noundef nonnull align 8 dereferenceable(24) %3) #13
  br label %8

7:                                                ; preds = %1
  br label %8

8:                                                ; preds = %7, %5
  %9 = phi i64 [ %6, %5 ], [ 23, %7 ]
  %10 = sub i64 %9, 1
  ret i64 %10
}

; Function Attrs: mustprogress nounwind uwtable
define linkonce_odr hidden void @_ZNSt3__116__non_trivial_ifILb1ENS_9allocatorIcEEEC2B8ne210000Ev(ptr noundef nonnull align 1 dereferenceable(1) %0) unnamed_addr #0 comdat align 2 {
  %2 = alloca ptr, align 8
  store ptr %0, ptr %2, align 8, !tbaa !706
  ret void
}

; Function Attrs: mustprogress nounwind uwtable
define linkonce_odr hidden noundef ptr @_ZNSt3__112__to_addressB8ne210000IKcEEPT_S3_(ptr noundef %0) #0 comdat {
  %2 = alloca ptr, align 8
  store ptr %0, ptr %2, align 8, !tbaa !9
  %3 = load ptr, ptr %2, align 8, !tbaa !9
  ret ptr %3
}

; Function Attrs: mustprogress nounwind uwtable
define linkonce_odr hidden noundef ptr @_ZNKSt3__112basic_stringIcNS_11char_traitsIcEENS_9allocatorIcEEE13__get_pointerB8ne210000Ev(ptr noundef nonnull align 8 dereferenceable(24) %0) #0 comdat align 2 {
  %2 = alloca ptr, align 8
  store ptr %0, ptr %2, align 8, !tbaa !14
  %3 = load ptr, ptr %2, align 8
  %4 = call noundef zeroext i1 @_ZNKSt3__112basic_stringIcNS_11char_traitsIcEENS_9allocatorIcEEE9__is_longB8ne210000Ev(ptr noundef nonnull align 8 dereferenceable(24) %3) #13
  br i1 %4, label %5, label %7

5:                                                ; preds = %1
  %6 = call noundef ptr @_ZNKSt3__112basic_stringIcNS_11char_traitsIcEENS_9allocatorIcEEE18__get_long_pointerB8ne210000Ev(ptr noundef nonnull align 8 dereferenceable(24) %3) #13
  br label %9

7:                                                ; preds = %1
  %8 = call noundef ptr @_ZNKSt3__112basic_stringIcNS_11char_traitsIcEENS_9allocatorIcEEE19__get_short_pointerB8ne210000Ev(ptr noundef nonnull align 8 dereferenceable(24) %3) #13
  br label %9

9:                                                ; preds = %7, %5
  %10 = phi ptr [ %6, %5 ], [ %8, %7 ]
  ret ptr %10
}

; Function Attrs: mustprogress nounwind uwtable
define linkonce_odr hidden void @_ZNKSt3__112basic_stringIcNS_11char_traitsIcEENS_9allocatorIcEEE14__annotate_newB8ne210000Em(ptr noundef nonnull align 8 dereferenceable(24) %0, i64 noundef %1) #0 comdat align 2 personality ptr @__gxx_personality_v0 {
  %3 = alloca ptr, align 8
  %4 = alloca i64, align 8
  store ptr %0, ptr %3, align 8, !tbaa !14
  store i64 %1, ptr %4, align 8, !tbaa !16
  %5 = load ptr, ptr %3, align 8
  %6 = call noundef ptr @_ZNKSt3__112basic_stringIcNS_11char_traitsIcEENS_9allocatorIcEEE4dataB8ne210000Ev(ptr noundef nonnull align 8 dereferenceable(24) %5) #13
  %7 = call noundef i64 @_ZNKSt3__112basic_stringIcNS_11char_traitsIcEENS_9allocatorIcEEE8capacityB8ne210000Ev(ptr noundef nonnull align 8 dereferenceable(24) %5) #13
  %8 = getelementptr inbounds nuw i8, ptr %6, i64 %7
  %9 = getelementptr inbounds i8, ptr %8, i64 1
  %10 = call noundef ptr @_ZNKSt3__112basic_stringIcNS_11char_traitsIcEENS_9allocatorIcEEE4dataB8ne210000Ev(ptr noundef nonnull align 8 dereferenceable(24) %5) #13
  %11 = load i64, ptr %4, align 8, !tbaa !16
  %12 = getelementptr inbounds nuw i8, ptr %10, i64 %11
  %13 = getelementptr inbounds i8, ptr %12, i64 1
  invoke void @_ZNKSt3__112basic_stringIcNS_11char_traitsIcEENS_9allocatorIcEEE31__annotate_contiguous_containerB8ne210000EPKvS7_(ptr noundef nonnull align 8 dereferenceable(24) %5, ptr noundef %9, ptr noundef %13)
          to label %14 unwind label %15

14:                                               ; preds = %2
  ret void

15:                                               ; preds = %2
  %16 = landingpad { ptr, i32 }
          catch ptr null
  %17 = extractvalue { ptr, i32 } %16, 0
  call void @__clang_call_terminate(ptr %17) #33
  unreachable
}

; Function Attrs: mustprogress nounwind uwtable
define linkonce_odr hidden void @_ZNSt3__19allocatorIcEC2B8ne210000Ev(ptr noundef nonnull align 1 dereferenceable(1) %0) unnamed_addr #0 comdat align 2 {
  %2 = alloca ptr, align 8
  store ptr %0, ptr %2, align 8, !tbaa !704
  %3 = load ptr, ptr %2, align 8
  call void @_ZNSt3__116__non_trivial_ifILb1ENS_9allocatorIcEEEC2B8ne210000Ev(ptr noundef nonnull align 1 dereferenceable(1) %3) #13
  ret void
}

; Function Attrs: mustprogress nounwind uwtable
define linkonce_odr hidden void @_ZNSt3__114__shared_countC2B8ne210000El(ptr noundef nonnull align 8 dereferenceable(16) %0, i64 noundef %1) unnamed_addr #0 comdat align 2 {
  %3 = alloca ptr, align 8
  %4 = alloca i64, align 8
  store ptr %0, ptr %3, align 8, !tbaa !390
  store i64 %1, ptr %4, align 8, !tbaa !16
  %5 = load ptr, ptr %3, align 8
  store ptr getelementptr inbounds inrange(-16, 24) ({ [5 x ptr] }, ptr @_ZTVNSt3__114__shared_countE, i32 0, i32 0, i32 2), ptr %5, align 8, !tbaa !37
  %6 = getelementptr inbounds nuw %"class.std::__1::__shared_count", ptr %5, i32 0, i32 1
  %7 = load i64, ptr %4, align 8, !tbaa !16
  store i64 %7, ptr %6, align 8, !tbaa !806
  ret void
}

; Function Attrs: mustprogress nounwind uwtable
define linkonce_odr hidden noundef ptr @_ZNKSt3__112basic_stringIcNS_11char_traitsIcEENS_9allocatorIcEEE4dataB8ne210000Ev(ptr noundef nonnull align 8 dereferenceable(24) %0) #0 comdat align 2 {
  %2 = alloca ptr, align 8
  store ptr %0, ptr %2, align 8, !tbaa !14
  %3 = load ptr, ptr %2, align 8
  %4 = call noundef ptr @_ZNKSt3__112basic_stringIcNS_11char_traitsIcEENS_9allocatorIcEEE13__get_pointerB8ne210000Ev(ptr noundef nonnull align 8 dereferenceable(24) %3) #13
  %5 = call noundef ptr @_ZNSt3__112__to_addressB8ne210000IKcEEPT_S3_(ptr noundef %4) #13
  ret ptr %5
}

; Function Attrs: mustprogress nounwind uwtable
define linkonce_odr hidden void @_ZNSt3__112basic_stringIcNS_11char_traitsIcEENS_9allocatorIcEEEC2B8ne210000Ev(ptr noundef nonnull align 8 dereferenceable(24) %0) unnamed_addr #0 comdat align 2 {
  %2 = alloca ptr, align 8
  store ptr %0, ptr %2, align 8, !tbaa !14
  %3 = load ptr, ptr %2, align 8
  %4 = getelementptr inbounds nuw %"class.std::__1::basic_string", ptr %3, i32 0, i32 0
  call void @llvm.memset.p0.i64(ptr align 8 %4, i8 0, i64 24, i1 false)
  call void @_ZNSt3__19allocatorIcEC2B8ne210000Ev(ptr noundef nonnull align 1 dereferenceable(1) %3) #13
  call void @_ZNKSt3__112basic_stringIcNS_11char_traitsIcEENS_9allocatorIcEEE14__annotate_newB8ne210000Em(ptr noundef nonnull align 8 dereferenceable(24) %3, i64 noundef 0) #13
  ret void
}

; Function Attrs: mustprogress nounwind uwtable
define linkonce_odr hidden void @_ZNSt3__16locale5facetC2B8ne210000Em(ptr noundef nonnull align 8 dereferenceable(16) %0, i64 noundef %1) unnamed_addr #0 comdat align 2 {
  %3 = alloca ptr, align 8
  %4 = alloca i64, align 8
  store ptr %0, ptr %3, align 8, !tbaa !363
  store i64 %1, ptr %4, align 8, !tbaa !16
  %5 = load ptr, ptr %3, align 8
  %6 = load i64, ptr %4, align 8, !tbaa !16
  %7 = sub nsw i64 %6, 1
  call void @_ZNSt3__114__shared_countC2B8ne210000El(ptr noundef nonnull align 8 dereferenceable(16) %5, i64 noundef %7) #13
  store ptr getelementptr inbounds inrange(-16, 24) ({ [5 x ptr] }, ptr @_ZTVNSt3__16locale5facetE, i32 0, i32 0, i32 2), ptr %5, align 8, !tbaa !37
  ret void
}

; Function Attrs: mustprogress nounwind uwtable
define linkonce_odr hidden noundef ptr @_ZNKSt3__112basic_stringIcNS_11char_traitsIcEENS_9allocatorIcEEE5c_strB8ne210000Ev(ptr noundef nonnull align 8 dereferenceable(24) %0) #0 comdat align 2 {
  %2 = alloca ptr, align 8
  store ptr %0, ptr %2, align 8, !tbaa !14
  %3 = load ptr, ptr %2, align 8
  %4 = call noundef ptr @_ZNKSt3__112basic_stringIcNS_11char_traitsIcEENS_9allocatorIcEEE4dataB8ne210000Ev(ptr noundef nonnull align 8 dereferenceable(24) %3) #13
  ret ptr %4
}

; Function Attrs: mustprogress uwtable
define dso_local void @_ZNSt3__18numpunctIcEC2Em(ptr noundef nonnull align 8 dereferenceable(48) %0, i64 noundef %1) unnamed_addr #2 align 2 {
  %3 = alloca ptr, align 8
  %4 = alloca i64, align 8
  store ptr %0, ptr %3, align 8, !tbaa !45
  store i64 %1, ptr %4, align 8, !tbaa !16
  %5 = load ptr, ptr %3, align 8
  %6 = load i64, ptr %4, align 8, !tbaa !16
  call void @_ZNSt3__16locale5facetC2B8ne210000Em(ptr noundef nonnull align 8 dereferenceable(16) %5, i64 noundef %6)
  store ptr getelementptr inbounds inrange(-16, 64) ({ [10 x ptr] }, ptr @_ZTVNSt3__18numpunctIcEE, i32 0, i32 0, i32 2), ptr %5, align 8, !tbaa !37
  %7 = getelementptr inbounds nuw %"class.std::__1::numpunct", ptr %5, i32 0, i32 1
  store i8 46, ptr %7, align 8, !tbaa !599
  %8 = getelementptr inbounds nuw %"class.std::__1::numpunct", ptr %5, i32 0, i32 2
  store i8 44, ptr %8, align 1, !tbaa !601
  %9 = getelementptr inbounds nuw %"class.std::__1::numpunct", ptr %5, i32 0, i32 3
  call void @_ZNSt3__112basic_stringIcNS_11char_traitsIcEENS_9allocatorIcEEEC2B8ne210000Ev(ptr noundef nonnull align 8 dereferenceable(24) %9) #13
  ret void
}

; Function Attrs: mustprogress uwtable
define dso_local void @_ZNSt3__115numpunct_bynameIcEC2ERKNS_12basic_stringIcNS_11char_traitsIcEENS_9allocatorIcEEEEm(ptr noundef nonnull align 8 dereferenceable(48) %0, ptr noundef nonnull align 8 dereferenceable(24) %1, i64 noundef %2) unnamed_addr #2 align 2 personality ptr @__gxx_personality_v0 {
  %4 = alloca ptr, align 8
  %5 = alloca ptr, align 8
  %6 = alloca i64, align 8
  %7 = alloca ptr, align 8
  %8 = alloca i32, align 4
  store ptr %0, ptr %4, align 8, !tbaa !400
  store ptr %1, ptr %5, align 8, !tbaa !14
  store i64 %2, ptr %6, align 8, !tbaa !16
  %9 = load ptr, ptr %4, align 8
  %10 = load i64, ptr %6, align 8, !tbaa !16
  call void @_ZNSt3__18numpunctIcEC2Em(ptr noundef nonnull align 8 dereferenceable(48) %9, i64 noundef %10)
  store ptr getelementptr inbounds inrange(-16, 64) ({ [10 x ptr] }, ptr @_ZTVNSt3__115numpunct_bynameIcEE, i32 0, i32 0, i32 2), ptr %9, align 8, !tbaa !37
  %11 = load ptr, ptr %5, align 8, !tbaa !14
  %12 = call noundef ptr @_ZNKSt3__112basic_stringIcNS_11char_traitsIcEENS_9allocatorIcEEE5c_strB8ne210000Ev(ptr noundef nonnull align 8 dereferenceable(24) %11) #13
  invoke void @_ZNSt3__115numpunct_bynameIcE6__initEPKc(ptr noundef nonnull align 8 dereferenceable(48) %9, ptr noundef %12)
          to label %13 unwind label %14

13:                                               ; preds = %3
  ret void

14:                                               ; preds = %3
  %15 = landingpad { ptr, i32 }
          cleanup
  %16 = extractvalue { ptr, i32 } %15, 0
  store ptr %16, ptr %7, align 8
  %17 = extractvalue { ptr, i32 } %15, 1
  store i32 %17, ptr %8, align 4
  call void @_ZNSt3__18numpunctIcED2Ev(ptr noundef nonnull align 8 dereferenceable(48) %9) #13
  br label %18

18:                                               ; preds = %14
  %19 = load ptr, ptr %7, align 8
  %20 = load i32, ptr %8, align 4
  %21 = insertvalue { ptr, i32 } poison, ptr %19, 0
  %22 = insertvalue { ptr, i32 } %21, i32 %20, 1
  resume { ptr, i32 } %22
}