; Function Attrs: mustprogress uwtable
define dso_local void @_ZNSt3__115numpunct_bynameIcEC2ERKNS_12basic_stringIcNS_11char_traitsIcEENS_9allocatorIcEEEEm(ptr noundef nonnull align 8 dereferenceable(48) initializes((0, 18), (24, 48)) %0, ptr noundef nonnull align 8 dereferenceable(24) %1, i64 noundef %2) unnamed_addr #2 align 2 personality ptr @__gxx_personality_v0 {
  %4 = add nsw i64 %2, -1
  %5 = getelementptr inbounds nuw i8, ptr %0, i64 8
  store i64 %4, ptr %5, align 8, !tbaa !329
  %6 = getelementptr inbounds nuw i8, ptr %0, i64 16
  store i8 46, ptr %6, align 8, !tbaa !342
  %7 = getelementptr inbounds nuw i8, ptr %0, i64 17
  store i8 44, ptr %7, align 1, !tbaa !344
  %8 = getelementptr inbounds nuw i8, ptr %0, i64 24
  tail call void @llvm.memset.p0.i64(ptr noundef nonnull align 8 dereferenceable(24) %8, i8 0, i64 24, i1 false)
  store ptr getelementptr inbounds nuw inrange(-16, 64) (i8, ptr @_ZTVNSt3__115numpunct_bynameIcEE, i64 16), ptr %0, align 8, !tbaa !23
  %9 = load i8, ptr %1, align 8
  %10 = and i8 %9, 1
  %.not.i.i.i = icmp eq i8 %10, 0
  %11 = getelementptr inbounds nuw i8, ptr %1, i64 16
  %12 = load ptr, ptr %11, align 8
  %13 = getelementptr inbounds nuw i8, ptr %1, i64 1
  %14 = select i1 %.not.i.i.i, ptr %13, ptr %12
  invoke void @_ZNSt3__115numpunct_bynameIcE6__initEPKc(ptr noundef nonnull align 8 dereferenceable(48) %0, ptr noundef %14)
          to label %15 unwind label %16

15:                                               ; preds = %3
  ret void

16:                                               ; preds = %3
  %17 = landingpad { ptr, i32 }
          cleanup
  tail call void @_ZNSt3__18numpunctIcED2Ev(ptr noundef nonnull align 8 dereferenceable(48) %0) #45
  resume { ptr, i32 } %17
}